#include <math.h>
#include <stdio.h>
#include <stdlib.h>
#include <string.h>


struct student 
{
       char num[11];
       int age;
};

int main(int argc, char *argv[])
{
  int n,i,j;
  scanf("%d",&n);
  struct student pa[n];
  for (i=0;i<=n-1;i++)
      scanf("%s%d",pa[i].num,&pa[i].age);
  struct student temp;
  for (j=n-1;j>=1;j--)
  {
      for (i=0;i<=j-1;i++)
      {
          if (pa[i].age<pa[i+1].age&&!(pa[i].age<60&&pa[i+1].age<60))
          {temp=pa[i];pa[i]=pa[i+1];pa[i+1]=temp;}
      }
  }
  for (i=0;i<=n-1;i++)
  {
      printf("%s",pa[i].num);
      (i<=n-2)?printf("\n"):printf("");
  }
  return 0;
}
