; ModuleID = '9/1627.c'
source_filename = "9/1627.c"
target datalayout = "e-m:e-p270:32:32-p271:32:32-p272:64:64-i64:64-f80:128-n8:16:32:64-S128"
target triple = "x86_64-pc-linux-gnu"

%struct.student = type { [11 x i8], i32 }

@.str = private unnamed_addr constant [3 x i8] c"%d\00", align 1
@.str.1 = private unnamed_addr constant [5 x i8] c"%s%d\00", align 1
@.str.2 = private unnamed_addr constant [3 x i8] c"%s\00", align 1
@.str.3 = private unnamed_addr constant [2 x i8] c"\0A\00", align 1
@.str.4 = private unnamed_addr constant [1 x i8] zeroinitializer, align 1

; Function Attrs: noinline nounwind uwtable
define dso_local i32 @main(i32 %0, i8** %1) #0 {
  %3 = alloca i32, align 4
  %4 = alloca i32, align 4
  %5 = alloca i8**, align 8
  %6 = alloca i32, align 4
  %7 = alloca i32, align 4
  %8 = alloca i32, align 4
  %9 = alloca i8*, align 8
  %10 = alloca i64, align 8
  %11 = alloca %struct.student, align 4
  store i32 0, i32* %3, align 4
  store i32 %0, i32* %4, align 4
  store i8** %1, i8*** %5, align 8
  %12 = call i32 (i8*, ...) @__isoc99_scanf(i8* getelementptr inbounds ([3 x i8], [3 x i8]* @.str, i64 0, i64 0), i32* %6)
  %13 = load i32, i32* %6, align 4
  %14 = zext i32 %13 to i64
  %15 = call i8* @llvm.stacksave()
  store i8* %15, i8** %9, align 8
  %16 = alloca %struct.student, i64 %14, align 16
  store i64 %14, i64* %10, align 8
  store i32 0, i32* %7, align 4
  br label %17

17:                                               ; preds = %33, %2
  %18 = load i32, i32* %7, align 4
  %19 = load i32, i32* %6, align 4
  %20 = sub nsw i32 %19, 1
  %21 = icmp sle i32 %18, %20
  br i1 %21, label %22, label %36

22:                                               ; preds = %17
  %23 = load i32, i32* %7, align 4
  %24 = sext i32 %23 to i64
  %25 = getelementptr inbounds %struct.student, %struct.student* %16, i64 %24
  %26 = getelementptr inbounds %struct.student, %struct.student* %25, i32 0, i32 0
  %27 = getelementptr inbounds [11 x i8], [11 x i8]* %26, i64 0, i64 0
  %28 = load i32, i32* %7, align 4
  %29 = sext i32 %28 to i64
  %30 = getelementptr inbounds %struct.student, %struct.student* %16, i64 %29
  %31 = getelementptr inbounds %struct.student, %struct.student* %30, i32 0, i32 1
  %32 = call i32 (i8*, ...) @__isoc99_scanf(i8* getelementptr inbounds ([5 x i8], [5 x i8]* @.str.1, i64 0, i64 0), i8* %27, i32* %31)
  br label %33

33:                                               ; preds = %22
  %34 = load i32, i32* %7, align 4
  %35 = add nsw i32 %34, 1
  store i32 %35, i32* %7, align 4
  br label %17

36:                                               ; preds = %17
  %37 = load i32, i32* %6, align 4
  %38 = sub nsw i32 %37, 1
  store i32 %38, i32* %8, align 4
  br label %39

39:                                               ; preds = %102, %36
  %40 = load i32, i32* %8, align 4
  %41 = icmp sge i32 %40, 1
  br i1 %41, label %42, label %105

42:                                               ; preds = %39
  store i32 0, i32* %7, align 4
  br label %43

43:                                               ; preds = %98, %42
  %44 = load i32, i32* %7, align 4
  %45 = load i32, i32* %8, align 4
  %46 = sub nsw i32 %45, 1
  %47 = icmp sle i32 %44, %46
  br i1 %47, label %48, label %101

48:                                               ; preds = %43
  %49 = load i32, i32* %7, align 4
  %50 = sext i32 %49 to i64
  %51 = getelementptr inbounds %struct.student, %struct.student* %16, i64 %50
  %52 = getelementptr inbounds %struct.student, %struct.student* %51, i32 0, i32 1
  %53 = load i32, i32* %52, align 4
  %54 = load i32, i32* %7, align 4
  %55 = add nsw i32 %54, 1
  %56 = sext i32 %55 to i64
  %57 = getelementptr inbounds %struct.student, %struct.student* %16, i64 %56
  %58 = getelementptr inbounds %struct.student, %struct.student* %57, i32 0, i32 1
  %59 = load i32, i32* %58, align 4
  %60 = icmp slt i32 %53, %59
  br i1 %60, label %61, label %97

61:                                               ; preds = %48
  %62 = load i32, i32* %7, align 4
  %63 = sext i32 %62 to i64
  %64 = getelementptr inbounds %struct.student, %struct.student* %16, i64 %63
  %65 = getelementptr inbounds %struct.student, %struct.student* %64, i32 0, i32 1
  %66 = load i32, i32* %65, align 4
  %67 = icmp slt i32 %66, 60
  br i1 %67, label %68, label %76

68:                                               ; preds = %61
  %69 = load i32, i32* %7, align 4
  %70 = add nsw i32 %69, 1
  %71 = sext i32 %70 to i64
  %72 = getelementptr inbounds %struct.student, %struct.student* %16, i64 %71
  %73 = getelementptr inbounds %struct.student, %struct.student* %72, i32 0, i32 1
  %74 = load i32, i32* %73, align 4
  %75 = icmp slt i32 %74, 60
  br i1 %75, label %97, label %76

76:                                               ; preds = %68, %61
  %77 = load i32, i32* %7, align 4
  %78 = sext i32 %77 to i64
  %79 = getelementptr inbounds %struct.student, %struct.student* %16, i64 %78
  %80 = bitcast %struct.student* %11 to i8*
  %81 = bitcast %struct.student* %79 to i8*
  call void @llvm.memcpy.p0i8.p0i8.i64(i8* align 4 %80, i8* align 16 %81, i64 16, i1 false)
  %82 = load i32, i32* %7, align 4
  %83 = sext i32 %82 to i64
  %84 = getelementptr inbounds %struct.student, %struct.student* %16, i64 %83
  %85 = load i32, i32* %7, align 4
  %86 = add nsw i32 %85, 1
  %87 = sext i32 %86 to i64
  %88 = getelementptr inbounds %struct.student, %struct.student* %16, i64 %87
  %89 = bitcast %struct.student* %84 to i8*
  %90 = bitcast %struct.student* %88 to i8*
  call void @llvm.memcpy.p0i8.p0i8.i64(i8* align 16 %89, i8* align 16 %90, i64 16, i1 false)
  %91 = load i32, i32* %7, align 4
  %92 = add nsw i32 %91, 1
  %93 = sext i32 %92 to i64
  %94 = getelementptr inbounds %struct.student, %struct.student* %16, i64 %93
  %95 = bitcast %struct.student* %94 to i8*
  %96 = bitcast %struct.student* %11 to i8*
  call void @llvm.memcpy.p0i8.p0i8.i64(i8* align 16 %95, i8* align 4 %96, i64 16, i1 false)
  br label %97

97:                                               ; preds = %76, %68, %48
  br label %98

98:                                               ; preds = %97
  %99 = load i32, i32* %7, align 4
  %100 = add nsw i32 %99, 1
  store i32 %100, i32* %7, align 4
  br label %43

101:                                              ; preds = %43
  br label %102

102:                                              ; preds = %101
  %103 = load i32, i32* %8, align 4
  %104 = add nsw i32 %103, -1
  store i32 %104, i32* %8, align 4
  br label %39

105:                                              ; preds = %39
  store i32 0, i32* %7, align 4
  br label %106

106:                                              ; preds = %128, %105
  %107 = load i32, i32* %7, align 4
  %108 = load i32, i32* %6, align 4
  %109 = sub nsw i32 %108, 1
  %110 = icmp sle i32 %107, %109
  br i1 %110, label %111, label %131

111:                                              ; preds = %106
  %112 = load i32, i32* %7, align 4
  %113 = sext i32 %112 to i64
  %114 = getelementptr inbounds %struct.student, %struct.student* %16, i64 %113
  %115 = getelementptr inbounds %struct.student, %struct.student* %114, i32 0, i32 0
  %116 = getelementptr inbounds [11 x i8], [11 x i8]* %115, i64 0, i64 0
  %117 = call i32 (i8*, ...) @printf(i8* getelementptr inbounds ([3 x i8], [3 x i8]* @.str.2, i64 0, i64 0), i8* %116)
  %118 = load i32, i32* %7, align 4
  %119 = load i32, i32* %6, align 4
  %120 = sub nsw i32 %119, 2
  %121 = icmp sle i32 %118, %120
  br i1 %121, label %122, label %124

122:                                              ; preds = %111
  %123 = call i32 (i8*, ...) @printf(i8* getelementptr inbounds ([2 x i8], [2 x i8]* @.str.3, i64 0, i64 0))
  br label %126

124:                                              ; preds = %111
  %125 = call i32 (i8*, ...) @printf(i8* getelementptr inbounds ([1 x i8], [1 x i8]* @.str.4, i64 0, i64 0))
  br label %126

126:                                              ; preds = %124, %122
  %127 = phi i32 [ %123, %122 ], [ %125, %124 ]
  br label %128

128:                                              ; preds = %126
  %129 = load i32, i32* %7, align 4
  %130 = add nsw i32 %129, 1
  store i32 %130, i32* %7, align 4
  br label %106

131:                                              ; preds = %106
  store i32 0, i32* %3, align 4
  %132 = load i8*, i8** %9, align 8
  call void @llvm.stackrestore(i8* %132)
  %133 = load i32, i32* %3, align 4
  ret i32 %133
}

declare dso_local i32 @__isoc99_scanf(i8*, ...) #1

; Function Attrs: nounwind
declare i8* @llvm.stacksave() #2

; Function Attrs: argmemonly nounwind willreturn
declare void @llvm.memcpy.p0i8.p0i8.i64(i8* noalias nocapture writeonly, i8* noalias nocapture readonly, i64, i1 immarg) #3

declare dso_local i32 @printf(i8*, ...) #1

; Function Attrs: nounwind
declare void @llvm.stackrestore(i8*) #2


!llvm.module.flags = !{!0}
!llvm.ident = !{!1}

!0 = !{i32 1, !"wchar_size", i32 4}
!1 = !{!"clang version 10.0.0-4ubuntu1 "}
